{
   <insert a suppression name here>
   Memcheck:Leak
   fun:_Znwj
   fun:_ZNK7QString13latin1_helperEv
   fun:_ZNK7QString6latin1Ev
}

{
   <insert a suppression name here>
   Memcheck:Leak
   fun:_Znwj
   fun:_ZN12Q3DnsManagerC1Ev
   fun:_ZN12Q3DnsManager7managerEv
   fun:_ZN11Q3DnsDomain6cachedEPK5Q3Dns
}

{
   <insert a suppression name here>
   Memcheck:Leak
   fun:_Znwj
   fun:_ZN5QListI8QVariantE6appendERKS0_
   fun:_ZN7QObject11setPropertyEPKcRK8QVariant
   fun:_ZN16QStyleSheetStyle6polishEP7QWidget
}

{
   <insert a suppression name here>
   Memcheck:Leak
   fun:_Znwj
   fun:_ZN7QObject11setPropertyEPKcRK8QVariant
   fun:_ZN16QStyleSheetStyle6polishEP7QWidget
}

{
   <insert a suppression name here>
   Memcheck:Leak
   fun:_Znwj
   fun:_ZN12Q3DnsManagerC1Ev
   fun:_ZN12Q3DnsManager7managerEv
   fun:_ZN11Q3DnsDomain6cachedEPK5Q3Dns
}

{
   <insert a suppression name here>
   Memcheck:Leak
   fun:_Znwj
   fun:_ZN12Q3DnsManagerC1Ev
   fun:_ZN12Q3DnsManager7managerEv
   fun:_ZN11Q3DnsDomain6cachedEPK5Q3Dns
}

{
   <insert a suppression name here>
   Memcheck:Leak
   fun:_Znwj
   fun:_ZN12QHostAddressC1ERKS_
   fun:_ZN12Q3DnsManagerC1Ev
   fun:_ZN12Q3DnsManager7managerEv
   fun:_ZN11Q3DnsDomain6cachedEPK5Q3Dns
}

{
   <insert a suppression name here>
   Memcheck:Leak
   fun:_Znwj
   fun:_ZNK13QFontEngineFT9loadGlyphEPNS_9QGlyphSetEjNS_11GlyphFormatE
   fun:_ZNK13QFontEngineFT14recalcAdvancesEiP12QGlyphLayout6QFlagsIN11QTextEngine10ShaperFlagEE
   fun:_ZNK13QFontEngineFT12stringToCMapEPK5QChariP12QGlyphLayoutPi6QFlagsIN11QTextEngine10ShaperFlagEE
   fun:_Z11basic_shapeP11QShaperItem
   fun:_ZNK11QTextEngine9shapeTextEi
   fun:_ZNK11QTextEngine5shapeEi
   fun:_ZNK11QTextEngine5widthEii
   fun:_ZNK12QFontMetrics5widthERK7QStringi
}

{
   <insert a suppression name here>
   Memcheck:Leak
   fun:malloc
   fun:_Z7qMallocj
   fun:_ZN7QString7reallocEi
   fun:_ZN7QString6resizeEi
   fun:_ZNK7QString10simplifiedEv
   fun:_ZN4QCss14ValueExtractor11extractFontEP5QFontPi
   fun:_ZN4QCss14ValueExtractor11extractFontEv
   fun:_ZN4QCss14ValueExtractor15extractGeometryEPiS1_S1_S1_S1_S1_
   fun:_ZN11QRenderRuleC1ERK7QVectorIN4QCss11DeclarationEEPK7QWidget
   fun:_ZNK16QStyleSheetStyle10renderRuleEPK7QWidgetii
   fun:_ZN16QStyleSheetStyle11setGeometryEP7QWidget
   fun:_ZN16QStyleSheetStyle6polishEP7QWidget
}

{
   <insert a suppression name here>
   Memcheck:Leak
   fun:malloc
   obj:/usr/lib/libX11.so.6.2.0
   fun:_XrmInternalStringToQuark
   fun:XStringToKeysym
   fun:_XimParseStringFile
   fun:_XimLocalOpenIM
   fun:_XimOpenIM
   fun:_XimRegisterIMInstantiateCallback
   fun:XRegisterIMInstantiateCallback
}

{
   <insert a suppression name here>
   Memcheck:Leak
   fun:malloc
   obj:/usr/lib/libfreetype.so.6.3.16
   fun:_hb_ftglue_alloc
   fun:_HB_OPEN_Load_ClassDefinition
   fun:GSUB_Load_EmptyOrClassDefinition
   fun:Load_ChainContextSubst
   fun:_HB_GSUB_Load_SubTable
   fun:_HB_OPEN_Load_LookupList
   fun:HB_Load_GSUB_Table
}

{
   <insert a suppression name here>
   Memcheck:Leak
   fun:_Znwj
   fun:_ZN8QPalette6detachEv
   fun:_ZN8QPalette8setBrushENS_10ColorGroupENS_9ColorRoleERK6QBrush
   fun:_ZN15QPlastiqueStyle6polishER8QPalette
}

{
   <insert a suppression name here>
   Memcheck:Leak
   fun:_Znwj
   fun:_Z27qt_plugin_instance_qca_osslv
   fun:_ZN13QPluginLoader15staticInstancesEv
   fun:_ZNK14QFactoryLoader4keysEv
}

{
   <insert a suppression name here>
   Memcheck:Leak
   fun:_Znwj
   fun:_ZN7Q3GList6appendEPv
   fun:_ZN12Q3DnsManagerC1Ev
   fun:_ZN12Q3DnsManager7managerEv
   fun:_ZN11Q3DnsDomain6cachedEPK5Q3Dns
}

{
   <insert a suppression name here>
   Memcheck:Leak
   fun:_Znwj
   fun:_ZN5QFont6detachEv
   fun:_ZNK5QFont7resolveERKS_
   fun:_ZN7QWidget7setFontERK5QFont
   fun:_ZN16QStyleSheetStyle10setPaletteEP7QWidget
   fun:_ZN16QStyleSheetStyle6polishEP7QWidget
}

{
   <insert a suppression name here>
   Memcheck:Leak
   fun:_Znaj
   fun:_ZN9QHashData6rehashEi
   fun:_ZNK13QFontEngineFT9loadGlyphEPNS_9QGlyphSetEjNS_11GlyphFormatE
   fun:_ZNK13QFontEngineFT14recalcAdvancesEiP12QGlyphLayout6QFlagsIN11QTextEngine10ShaperFlagEE
   fun:_ZNK13QFontEngineFT12stringToCMapEPK5QChariP12QGlyphLayoutPi6QFlagsIN11QTextEngine10ShaperFlagEE
   fun:_ZNK16QFontEngineMulti12stringToCMapEPK5QChariP12QGlyphLayoutPi6QFlagsIN11QTextEngine10ShaperFlagEE
}

{
   <insert a suppression name here>
   Memcheck:Leak
   fun:_Znwj
   fun:_ZN7QObjectC2EPS_
   fun:_ZN11QFontEngineC2Ev
   fun:_ZN13QFontEngineFTC2ERK8QFontDef
   fun:_ZN16QFontEngineX11FTC1EP10_FcPatternRK8QFontDefi
}

{
   <insert a suppression name here>
   Memcheck:Leak
   fun:malloc
   obj:/usr/lib/libfreetype.so.6.3.16
   fun:_hb_ftglue_alloc
   fun:Load_LigatureSubst
   fun:_HB_GSUB_Load_SubTable
   fun:_HB_OPEN_Load_LookupList
   fun:HB_Load_GSUB_Table
   fun:_ZN9QOpenTypeC1EP11QFontEngineP11FT_FaceRec_
}

{
   <insert a suppression name here>
   Memcheck:Param
   write(buf)
   obj:/lib/ld-2.7.so
   fun:_ZN19QNativeSocketEngine5writeEPKcx
   fun:_ZN22QAbstractSocketPrivate5flushEv
}

{
   <insert a suppression name here>
   Memcheck:Cond
   obj:/usr/lib/libz.so.1.2.3.3
   fun:deflate
}

{
   <insert a suppression name here>
   Memcheck:Value4
   obj:/usr/lib/libz.so.1.2.3.3
   obj:/usr/lib/libz.so.1.2.3.3
   obj:/usr/lib/libz.so.1.2.3.3
   fun:deflate
}

{
   <insert a suppression name here>
   Memcheck:Value4
   obj:/usr/lib/libz.so.1.2.3.3
   fun:deflate
}

{
   <insert a suppression name here>
   Memcheck:Cond
   obj:/usr/lib/libz.so.1.2.3.3
   obj:/usr/lib/libz.so.1.2.3.3
   fun:deflate
}

{
   <insert a suppression name here>
   Memcheck:Cond
   fun:memcpy
   obj:/usr/lib/libz.so.1.2.3.3
   obj:/usr/lib/libz.so.1.2.3.3
   fun:deflate
}

{
   <insert a suppression name here>
   Memcheck:Value4
   fun:memcpy
   obj:/usr/lib/libz.so.1.2.3.3
   obj:/usr/lib/libz.so.1.2.3.3
   fun:deflate
}

{
   <insert a suppression name here>
   Memcheck:Cond
   fun:deflate
   fun:_ZN10Compressor5writeERK10QByteArrayb
}

{
   <insert a suppression name here>
   Memcheck:Leak
   fun:malloc
   fun:_Z7qMallocj
   fun:_ZN10QByteArrayC1EPKc
   fun:_ZN7QObject11setPropertyEPKcRK8QVariant
   fun:_ZN16QStyleSheetStyle6polishEP7QWidget
}

{
   <insert a suppression name here>
   Memcheck:Leak
   fun:_Znaj
   fun:_ZN9QHashData6rehashEi
   fun:_ZNK13QFontEngineFT9loadGlyphEPNS_9QGlyphSetEjNS_11GlyphFormatE
   fun:_ZNK13QFontEngineFT14recalcAdvancesEiP12QGlyphLayout6QFlagsIN11QTextEngine10ShaperFlagEE
   fun:_ZNK13QFontEngineFT12stringToCMapEPK5QChariP12QGlyphLayoutPi6QFlagsIN11QTextEngine10ShaperFlagEE
   fun:_Z11basic_shapeP11QShaperItem
   fun:_ZNK11QTextEngine9shapeTextEi
   fun:_ZNK11QTextEngine5shapeEi
   fun:_ZNK11QTextEngine5widthEii
   fun:_ZNK12QFontMetrics5widthERK7QStringi
}

{
   <insert a suppression name here>
   Memcheck:Leak
   fun:_Znwj
   fun:_ZNK7QString13latin1_helperEv
   fun:_ZNK7QObject4nameEv
}

{
   <insert a suppression name here>
   Memcheck:Leak
   fun:_Znwj
   fun:_ZN11QThreadData7currentEv
   fun:_ZN7QObjectC2EPS_
   fun:_ZN3QCA6LoggerC1Ev
   fun:_ZN3QCA6GlobalC1Ev
   fun:_ZN3QCA4initENS_10MemoryModeEi
   fun:_ZN3QCA11InitializerC1ENS_10MemoryModeEi
}

{
   <insert a suppression name here>
   Memcheck:Leak
   fun:_Znwj
   fun:_ZN14QAdoptedThreadC1EP11QThreadData
   fun:_ZN11QThreadData7currentEv
   fun:_ZN7QObjectC2EPS_
   fun:_ZN3QCA6LoggerC1Ev
   fun:_ZN3QCA6GlobalC1Ev
   fun:_ZN3QCA4initENS_10MemoryModeEi
   fun:_ZN3QCA11InitializerC1ENS_10MemoryModeEi
}

{
   <insert a suppression name here>
   Memcheck:Leak
   fun:_Znwj
   fun:_ZN6QMutexC1ENS_13RecursionModeE
   fun:_ZN11QThreadDataC1Ei
   fun:_ZN11QThreadData7currentEv
   fun:_ZN7QObjectC2EPS_
   fun:_ZN3QCA6LoggerC1Ev
   fun:_ZN3QCA6GlobalC1Ev
   fun:_ZN3QCA4initENS_10MemoryModeEi
   fun:_ZN3QCA11InitializerC1ENS_10MemoryModeEi
}

{
   <insert a suppression name here>
   Memcheck:Leak
   fun:_Znwj
   fun:_Z32qt_plugin_instance_psifilepluginv
   fun:_ZN13QPluginLoader15staticInstancesEv
   fun:_ZNK14QFactoryLoader4keysEv
}

{
   <insert a suppression name here>
   Memcheck:Leak
   fun:realloc
   obj:/usr/lib/i686/cmov/libcrypto.so.0.9.8
   fun:CRYPTO_realloc
   fun:lh_insert
   fun:OBJ_NAME_add
   fun:EVP_add_digest
   fun:OpenSSL_add_all_digests
   fun:OPENSSL_add_all_algorithms_noconf
   fun:_ZN15opensslProvider4initEv
}

{
   <insert a suppression name here>
   Memcheck:Leak
   fun:malloc
   obj:/usr/lib/i686/cmov/libcrypto.so.0.9.8
   fun:CRYPTO_malloc
   fun:lh_insert
   obj:/usr/lib/i686/cmov/libcrypto.so.0.9.8
   fun:ERR_load_ERR_strings
   fun:ERR_load_crypto_strings
   fun:_ZN15opensslProvider4initEv
}

{
   <insert a suppression name here>
   Memcheck:Leak
   fun:malloc
   obj:/usr/lib/libfreetype.so.6.3.16
   fun:_hb_ftglue_alloc
   fun:_HB_OPEN_Load_FeatureList
   fun:HB_Load_GSUB_Table
   fun:_ZN9QOpenTypeC1EP11QFontEngineP11FT_FaceRec_
   fun:_ZNK13QFontEngineFT8openTypeEv
   fun:_Z11basic_shapeP11QShaperItem
   fun:_ZNK11QTextEngine9shapeTextEi
   fun:_ZNK11QTextEngine5shapeEi
   fun:_ZNK11QTextEngine5widthEii
   fun:_ZNK12QFontMetrics5widthERK7QStringi
}

{
   <insert a suppression name here>
   Memcheck:Leak
   fun:malloc
   fun:_Z7qMallocj
   fun:_ZN7QVectorIN11QFontEngine8KernPairEE7reallocEii
   fun:_ZN7QVectorIN11QFontEngine8KernPairEE6appendERKS1_
   fun:_ZN11QFontEngine16loadKerningPairsE6QFixed
   fun:_ZNK13QFontEngineFT9doKerningEiP12QGlyphLayout6QFlagsIN11QTextEngine10ShaperFlagEE
   fun:_ZNK16QFontEngineMulti9doKerningEiP12QGlyphLayout6QFlagsIN11QTextEngine10ShaperFlagEE
   fun:_ZNK11QTextEngine9shapeTextEi
   fun:_ZNK11QTextEngine5shapeEi
   fun:_ZNK11QTextEngine5widthEii
   fun:_ZNK12QFontMetrics5widthERK7QStringi
}

{
   <insert a suppression name here>
   Memcheck:Leak
   fun:malloc
   obj:/usr/lib/libfreetype.so.6.3.16
   fun:_hb_ftglue_alloc
   fun:Load_PairPos
   fun:_HB_GPOS_Load_SubTable
   fun:_HB_OPEN_Load_LookupList
   fun:HB_Load_GPOS_Table
   fun:_ZN9QOpenTypeC1EP11QFontEngineP11FT_FaceRec_
   fun:_ZNK13QFontEngineFT8openTypeEv
   fun:_Z11basic_shapeP11QShaperItem
   fun:_ZNK11QTextEngine9shapeTextEi
   fun:_ZNK11QTextEngine5shapeEi
   fun:_ZNK11QTextEngine5widthEii
   fun:_ZNK12QFontMetrics5widthERK7QStringi
}

{
   <insert a suppression name here>
   Memcheck:Leak
   fun:malloc
   obj:/usr/lib/libfreetype.so.6.3.16
   fun:_hb_ftglue_alloc
   fun:Load_PairPos
   fun:_HB_GPOS_Load_SubTable
   fun:_HB_OPEN_Load_LookupList
   fun:HB_Load_GPOS_Table
   fun:_ZN9QOpenTypeC1EP11QFontEngineP11FT_FaceRec_
   fun:_ZNK13QFontEngineFT8openTypeEv
   fun:_Z11basic_shapeP11QShaperItem
   fun:_ZNK11QTextEngine9shapeTextEi
   fun:_ZNK11QTextEngine5shapeEi
   fun:_ZNK11QTextEngine5widthEii
   fun:_ZNK12QFontMetrics5widthERK7QStringi
}

{
   <insert a suppression name here>
   Memcheck:Leak
   fun:_Znwj
   fun:_ZN9QHashData13detach_helperEPFvPNS_4NodeEPvEi
   fun:_ZN5QHashIPv10QByteArrayE13detach_helperEv
   fun:_ZNK7QString13latin1_helperEv
   fun:_ZNK7QObject4nameEv
}

{
   <insert a suppression name here>
   Memcheck:Leak
   fun:realloc
   obj:/usr/lib/i686/cmov/libcrypto.so.0.9.8
   fun:CRYPTO_realloc
   fun:lh_insert
   obj:/usr/lib/i686/cmov/libcrypto.so.0.9.8
   fun:ERR_load_strings
   fun:ERR_load_BIO_strings
   fun:ERR_load_crypto_strings
   fun:_ZN15opensslProvider4initEv
}

{
   <insert a suppression name here>
   Memcheck:Leak
   fun:_Znaj
   fun:_ZN9QHashData6rehashEi
   fun:_ZN5QHashIPv10QByteArrayE6removeERKS0_
   fun:_ZN7QString4freeEPNS_4DataE
   fun:_ZN7QStringD1Ev
   fun:_ZN5QListI7QStringE13node_destructEPNS1_4NodeES3_
   fun:_ZN5QListI7QStringE4freeEPN9QListData4DataE
   fun:_ZN5QListI7QStringED2Ev
   fun:_ZN11QStringListD1Ev
}

{
   <insert a suppression name here>
   Memcheck:Leak
   fun:malloc
   obj:/usr/lib/libfontconfig.so.1.3.0
   fun:FcPatternAddWeak
   fun:_Z6loadFcPK12QFontPrivateiRK8QFontDef
   fun:_ZN13QFontDatabase4loadEPK12QFontPrivatei
}

{
   <insert a suppression name here>
   Memcheck:Leak
   fun:malloc
   obj:/usr/lib/i686/cmov/libcrypto.so.0.9.8
   fun:CRYPTO_malloc
   fun:OBJ_NAME_add
   fun:EVP_add_cipher
   fun:SSL_library_init
   fun:_ZN16opensslQCAPlugin12MyTLSContextC1EPN3QCA8ProviderE
   fun:_ZN15opensslProvider13createContextERK7QString
   fun:_ZN3QCA15doCreateContextEPNS_8ProviderERK7QString
}

{
   <insert a suppression name here>
   Memcheck:Leak
   fun:malloc
   fun:_Z7qMallocj
   fun:_ZN10QByteArray7reallocEi
   fun:_ZN10QByteArrayaSEPKc
   fun:_Z24qt_x11ft_convert_patternP10_FcPatternP10QByteArrayPiPb
   fun:_ZN16QFontEngineX11FTC1EP10_FcPatternRK8QFontDefi
   fun:_Z14tryPatternLoadP10_FcPatterniRK8QFontDefi
   fun:_Z6loadFcPK12QFontPrivateiRK8QFontDef
   fun:_ZN13QFontDatabase4loadEPK12QFontPrivatei
}

{
   <insert a suppression name here>
   Memcheck:Leak
   fun:_Znwj
   fun:_ZN7QObjectC2EPS_
   fun:_ZN11QFontEngineC2Ev
   fun:_ZN16QFontEngineMultiC2Ei
   fun:_ZN18QFontEngineMultiFTC1EP11QFontEngineP10_FcPatterniRK8QFontDef
   fun:_Z6loadFcPK12QFontPrivateiRK8QFontDef
   fun:_ZN13QFontDatabase4loadEPK12QFontPrivatei
}

{
   <insert a suppression name here>
   Memcheck:Leak
   fun:malloc
   obj:/usr/lib/i686/cmov/libcrypto.so.0.9.8
   fun:CRYPTO_malloc
   fun:lh_insert
   obj:/usr/lib/i686/cmov/libcrypto.so.0.9.8
   fun:ERR_load_strings
   fun:ERR_load_EVP_strings
   fun:ERR_load_crypto_strings
   fun:_ZN15opensslProvider4initEv
   fun:_ZN3QCA12ProviderItem10ensureInitEv
}

{
   <insert a suppression name here>
   Memcheck:Leak
   fun:realloc
   obj:/usr/lib/i686/cmov/libcrypto.so.0.9.8
   fun:CRYPTO_realloc
   fun:sk_insert
   fun:sk_push
   fun:EVP_PBE_alg_add
   fun:PKCS5_PBE_add
   fun:OpenSSL_add_all_ciphers
   fun:OPENSSL_add_all_algorithms_noconf
   fun:_ZN15opensslProvider4initEv
   fun:_ZN3QCA12ProviderItem10ensureInitEv
   fun:_ZNK3QCA15ProviderManager7findForERK7QStringS3_
   fun:_ZN3QCA18getProviderForTypeERK7QStringS2_
   fun:_ZN3QCA10getContextERK7QStringS2_
   fun:_ZN3QCA9Algorithm6changeERK7QStringS3_
   fun:_ZN3QCA9AlgorithmC2ERK7QStringS3_
   fun:_ZN3QCA3TLSC1EP7QObjectRK7QString
   fun:_ZN10PsiAccount5loginEv
   fun:_ZN10PsiAccount9setStatusERKN4XMPP6StatusEb
   fun:_ZN10PsiAccount9autoLoginEv
   fun:_ZN6PsiCon4initEv
   fun:_ZN7PsiMain12sessionStartEv
   fun:_ZN7PsiMain11qt_metacallEN11QMetaObject4CallEiPPv
   fun:_ZN11QMetaObject8activateEP7QObjectiiPPv
}

{
   <insert a suppression name here>
   Memcheck:Leak
   fun:_Znwj
   fun:_ZN9QHashData13detach_helperEPFvPNS_4NodeEPvEi
   fun:_ZN5QHashIPv10QByteArrayE13detach_helperEv
   fun:_ZNK7QString13latin1_helperEv
   fun:_ZNK7QString6latin1Ev
}

{
   <insert a suppression name here>
   Memcheck:Leak
   fun:malloc
   fun:_Z7qMallocj
   fun:_ZN7QStringC1EPK5QChari
   fun:_ZNK7QString3midEii
   fun:_ZNK7QString5splitERKS_NS_13SplitBehaviorEN2Qt15CaseSensitivityE
   fun:_ZN5Q3Dns9doResInitEv
   fun:_ZN12Q3DnsManagerC1Ev
}

{
   <insert a suppression name here>
   Memcheck:Leak
   fun:_Znwj
   fun:_ZN7QObjectC2EPS_
   fun:_ZN14QImageIOPluginC2EP7QObject
   fun:qt_plugin_instance
}

{
   <insert a suppression name here>
   Memcheck:Leak
   fun:_Znwj
   fun:_ZN9QHashData13detach_helperEPFvPNS_4NodeEPvEi
   fun:_ZN5QHashIPv10QByteArrayE13detach_helperEv
   fun:_ZNK7QString13latin1_helperEv
   fun:_ZNK7QString6latin1Ev
}
